target datalayout = "e-m:e-p270:32:32-p271:32:32-p272:64:64-i64:64-i128:128-f80:128-n8:16:32:64-S128"
target triple = "x86_64-pc-linux-gnu"

%struct.PGShmemHeader = type { i32, i32, i64, i64, i32, ptr, i64, i64 }
%union.LWLockPadded = type { %struct.LWLock, [112 x i8] }
%struct.LWLock = type { i16, %struct.pg_atomic_uint32, %struct.proclist_head }
%struct.pg_atomic_uint32 = type { i32 }
%struct.proclist_head = type { i32, i32 }
%struct.ShmemIndexEnt = type { [48 x i8], ptr, i64, i64 }

@ShmemSegHdr = internal global ptr null, align 8
@ShmemBase = internal global ptr null, align 8
@ShmemLock = dso_local global ptr null, align 8
@ShmemIndex = internal global ptr null, align 8
@.str.1 = private unnamed_addr constant [8 x i8] c"shmem.c\00", align 1
@MainLWLockArray = external global ptr, align 8
@IsUnderPostmaster = external global i8, align 1
@.str.3 = private unnamed_addr constant [58 x i8] c"could not create ShmemIndex entry for data structure \22%s\22\00", align 1
@__func__.ShmemInitStruct = private unnamed_addr constant [16 x i8] c"ShmemInitStruct\00", align 1
@.str.4 = private unnamed_addr constant [81 x i8] c"ShmemIndex entry size is wrong for data structure \22%s\22: expected %zu, actual %zu\00", align 1
@.str.5 = private unnamed_addr constant [71 x i8] c"not enough shared memory for data structure \22%s\22 (%zu bytes requested)\00", align 1
@__func__.ShmemAllocRaw = private unnamed_addr constant [14 x i8] c"ShmemAllocRaw\00", align 1

; Function Attrs: inlinehint nounwind uwtable
define internal i32 @tas(ptr noundef %0) #5 {
  %2 = alloca ptr, align 8
  %3 = alloca i8, align 1
  store ptr %0, ptr %2, align 8
  call void @llvm.lifetime.start.p0(i64 1, ptr %3) #6
  store i8 1, ptr %3, align 1
  %4 = load i8, ptr %3, align 1
  %5 = load ptr, ptr %2, align 8
  %6 = call i8 asm sideeffect "\09lock\09\09\09\0A\09xchgb\09$0,$1\09\0A", "=q,=*m,0,*m,~{memory},~{cc},~{dirflag},~{fpsr},~{flags}"(ptr elementtype(i8) %5, i8 %4, ptr elementtype(i8) %5) #6, !srcloc !10
  store i8 %6, ptr %3, align 1
  %7 = load i8, ptr %3, align 1
  %8 = zext i8 %7 to i32
  call void @llvm.lifetime.end.p0(i64 1, ptr %3) #6
  ret i32 %8
}

; Function Attrs: nounwind uwtable
define internal ptr @ShmemAllocRaw(i64 noundef %0, ptr noundef %1) #0 {
  %3 = alloca i64, align 8
  %4 = alloca ptr, align 8
  %5 = alloca i64, align 8
  %6 = alloca i64, align 8
  %7 = alloca ptr, align 8
  store i64 %0, ptr %3, align 8
  store ptr %1, ptr %4, align 8
  call void @llvm.lifetime.start.p0(i64 8, ptr %5) #6
  call void @llvm.lifetime.start.p0(i64 8, ptr %6) #6
  call void @llvm.lifetime.start.p0(i64 8, ptr %7) #6
  %8 = load i64, ptr %3, align 8
  %9 = add i64 %8, 127
  %10 = and i64 %9, -128
  store i64 %10, ptr %3, align 8
  %11 = load i64, ptr %3, align 8
  %12 = load ptr, ptr %4, align 8
  store i64 %11, ptr %12, align 8
  %13 = load ptr, ptr @ShmemLock, align 8
  %14 = call i32 @tas(ptr noundef %13)
  %15 = icmp ne i32 %14, 0
  br i1 %15, label %16, label %19

16:                                               ; preds = %2
  %17 = load ptr, ptr @ShmemLock, align 8
  %18 = call i32 @s_lock(ptr noundef %17, ptr noundef @.str.1, i32 noundef 203, ptr noundef @__func__.ShmemAllocRaw)
  br label %20

19:                                               ; preds = %2
  br label %20

20:                                               ; preds = %19, %16
  %21 = load ptr, ptr @ShmemSegHdr, align 8
  %22 = getelementptr inbounds nuw %struct.PGShmemHeader, ptr %21, i32 0, i32 3
  %23 = load i64, ptr %22, align 8
  store i64 %23, ptr %5, align 8
  %24 = load i64, ptr %5, align 8
  %25 = load i64, ptr %3, align 8
  %26 = add i64 %24, %25
  store i64 %26, ptr %6, align 8
  %27 = load i64, ptr %6, align 8
  %28 = load ptr, ptr @ShmemSegHdr, align 8
  %29 = getelementptr inbounds nuw %struct.PGShmemHeader, ptr %28, i32 0, i32 2
  %30 = load i64, ptr %29, align 8
  %31 = icmp ule i64 %27, %30
  br i1 %31, label %32, label %39

32:                                               ; preds = %20
  %33 = load ptr, ptr @ShmemBase, align 8
  %34 = load i64, ptr %5, align 8
  %35 = getelementptr inbounds nuw i8, ptr %33, i64 %34
  store ptr %35, ptr %7, align 8
  %36 = load i64, ptr %6, align 8
  %37 = load ptr, ptr @ShmemSegHdr, align 8
  %38 = getelementptr inbounds nuw %struct.PGShmemHeader, ptr %37, i32 0, i32 3
  store i64 %36, ptr %38, align 8
  br label %40

39:                                               ; preds = %20
  store ptr null, ptr %7, align 8
  br label %40

40:                                               ; preds = %39, %32
  br label %41

41:                                               ; preds = %40
  call void asm sideeffect "", "~{memory},~{dirflag},~{fpsr},~{flags}"() #6, !srcloc !5
  %42 = load ptr, ptr @ShmemLock, align 8
  store i8 0, ptr %42, align 1
  br label %43

43:                                               ; preds = %41
  br label %44

44:                                               ; preds = %43
  %45 = load ptr, ptr %7, align 8
  call void @llvm.lifetime.end.p0(i64 8, ptr %7) #6
  call void @llvm.lifetime.end.p0(i64 8, ptr %6) #6
  call void @llvm.lifetime.end.p0(i64 8, ptr %5) #6
  ret ptr %45
}

; Function Attrs: nounwind uwtable
define dso_local ptr @ShmemInitStruct(ptr noundef %0, i64 noundef %1, ptr noundef %2) #0 {
  %4 = alloca ptr, align 8
  %5 = alloca ptr, align 8
  %6 = alloca i64, align 8
  %7 = alloca ptr, align 8
  %8 = alloca ptr, align 8
  %9 = alloca ptr, align 8
  %10 = alloca ptr, align 8
  %11 = alloca i32, align 4
  %12 = alloca i64, align 8
  store ptr %0, ptr %5, align 8
  store i64 %1, ptr %6, align 8
  store ptr %2, ptr %7, align 8
  call void @llvm.lifetime.start.p0(i64 8, ptr %8) #6
  call void @llvm.lifetime.start.p0(i64 8, ptr %9) #6
  %13 = load ptr, ptr @MainLWLockArray, align 8
  %14 = getelementptr inbounds %union.LWLockPadded, ptr %13, i64 1
  %15 = call zeroext i1 @LWLockAcquire(ptr noundef %14, i32 noundef 0)
  %16 = load ptr, ptr @ShmemIndex, align 8
  %17 = icmp ne ptr %16, null
  br i1 %17, label %38, label %18

18:                                               ; preds = %3
  call void @llvm.lifetime.start.p0(i64 8, ptr %10) #6
  %19 = load ptr, ptr @ShmemSegHdr, align 8
  store ptr %19, ptr %10, align 8
  %20 = load i8, ptr @IsUnderPostmaster, align 1, !range !6, !noundef !7
  %21 = trunc i8 %20 to i1
  br i1 %21, label %22, label %27

22:                                               ; preds = %18
  %23 = load ptr, ptr %10, align 8
  %24 = getelementptr inbounds nuw %struct.PGShmemHeader, ptr %23, i32 0, i32 5
  %25 = load ptr, ptr %24, align 8
  store ptr %25, ptr %9, align 8
  %26 = load ptr, ptr %7, align 8
  store i8 1, ptr %26, align 1
  br label %34

27:                                               ; preds = %18
  %28 = load i64, ptr %6, align 8
  %29 = call ptr @ShmemAlloc(i64 noundef %28)
  store ptr %29, ptr %9, align 8
  %30 = load ptr, ptr %9, align 8
  %31 = load ptr, ptr %10, align 8
  %32 = getelementptr inbounds nuw %struct.PGShmemHeader, ptr %31, i32 0, i32 5
  store ptr %30, ptr %32, align 8
  %33 = load ptr, ptr %7, align 8
  store i8 0, ptr %33, align 1
  br label %34

34:                                               ; preds = %27, %22
  %35 = load ptr, ptr @MainLWLockArray, align 8
  %36 = getelementptr inbounds %union.LWLockPadded, ptr %35, i64 1
  call void @LWLockRelease(ptr noundef %36)
  %37 = load ptr, ptr %9, align 8
  store ptr %37, ptr %4, align 8
  store i32 1, ptr %11, align 4
  call void @llvm.lifetime.end.p0(i64 8, ptr %10) #6
  br label %130

38:                                               ; preds = %3
  %39 = load ptr, ptr @ShmemIndex, align 8
  %40 = load ptr, ptr %5, align 8
  %41 = load ptr, ptr %7, align 8
  %42 = call ptr @hash_search(ptr noundef %39, ptr noundef %40, i32 noundef 3, ptr noundef %41)
  store ptr %42, ptr %8, align 8
  %43 = load ptr, ptr %8, align 8
  %44 = icmp ne ptr %43, null
  br i1 %44, label %60, label %45

45:                                               ; preds = %38
  %46 = load ptr, ptr @MainLWLockArray, align 8
  %47 = getelementptr inbounds %union.LWLockPadded, ptr %46, i64 1
  call void @LWLockRelease(ptr noundef %47)
  br label %48

48:                                               ; preds = %45
  br i1 true, label %49, label %51

49:                                               ; preds = %48
  %50 = call zeroext i1 @errstart_cold(i32 noundef 21, ptr noundef null) #7
  br i1 %50, label %53, label %57

51:                                               ; preds = %48
  %52 = call zeroext i1 @errstart(i32 noundef 21, ptr noundef null)
  br i1 %52, label %53, label %57

53:                                               ; preds = %51, %49
  %54 = call i32 @errcode(i32 noundef 8389)
  %55 = load ptr, ptr %5, align 8
  %56 = call i32 (ptr, ...) @errmsg(ptr noundef @.str.3, ptr noundef %55)
  call void @errfinish(ptr noundef @.str.1, i32 noundef 432, ptr noundef @__func__.ShmemInitStruct)
  br label %57

57:                                               ; preds = %53, %51, %49
  unreachable

58:                                               ; No predecessors!
  br label %59

59:                                               ; preds = %58
  br label %60

60:                                               ; preds = %59, %38
  %61 = load ptr, ptr %7, align 8
  %62 = load i8, ptr %61, align 1, !range !6, !noundef !7
  %63 = trunc i8 %62 to i1
  br i1 %63, label %64, label %92

64:                                               ; preds = %60
  %65 = load ptr, ptr %8, align 8
  %66 = getelementptr inbounds nuw %struct.ShmemIndexEnt, ptr %65, i32 0, i32 2
  %67 = load i64, ptr %66, align 8
  %68 = load i64, ptr %6, align 8
  %69 = icmp ne i64 %67, %68
  br i1 %69, label %70, label %88

70:                                               ; preds = %64
  %71 = load ptr, ptr @MainLWLockArray, align 8
  %72 = getelementptr inbounds %union.LWLockPadded, ptr %71, i64 1
  call void @LWLockRelease(ptr noundef %72)
  br label %73

73:                                               ; preds = %70
  br i1 true, label %74, label %76

74:                                               ; preds = %73
  %75 = call zeroext i1 @errstart_cold(i32 noundef 21, ptr noundef null) #7
  br i1 %75, label %78, label %85

76:                                               ; preds = %73
  %77 = call zeroext i1 @errstart(i32 noundef 21, ptr noundef null)
  br i1 %77, label %78, label %85

78:                                               ; preds = %76, %74
  %79 = load ptr, ptr %5, align 8
  %80 = load i64, ptr %6, align 8
  %81 = load ptr, ptr %8, align 8
  %82 = getelementptr inbounds nuw %struct.ShmemIndexEnt, ptr %81, i32 0, i32 2
  %83 = load i64, ptr %82, align 8
  %84 = call i32 (ptr, ...) @errmsg(ptr noundef @.str.4, ptr noundef %79, i64 noundef %80, i64 noundef %83)
  call void @errfinish(ptr noundef @.str.1, i32 noundef 448, ptr noundef @__func__.ShmemInitStruct)
  br label %85

85:                                               ; preds = %78, %76, %74
  unreachable

86:                                               ; No predecessors!
  br label %87

87:                                               ; preds = %86
  br label %88

88:                                               ; preds = %87, %64
  %89 = load ptr, ptr %8, align 8
  %90 = getelementptr inbounds nuw %struct.ShmemIndexEnt, ptr %89, i32 0, i32 1
  %91 = load ptr, ptr %90, align 8
  store ptr %91, ptr %9, align 8
  br label %126

92:                                               ; preds = %60
  call void @llvm.lifetime.start.p0(i64 8, ptr %12) #6
  %93 = load i64, ptr %6, align 8
  %94 = call ptr @ShmemAllocRaw(i64 noundef %93, ptr noundef %12)
  store ptr %94, ptr %9, align 8
  %95 = load ptr, ptr %9, align 8
  %96 = icmp eq ptr %95, null
  br i1 %96, label %97, label %116

97:                                               ; preds = %92
  %98 = load ptr, ptr @ShmemIndex, align 8
  %99 = load ptr, ptr %5, align 8
  %100 = call ptr @hash_search(ptr noundef %98, ptr noundef %99, i32 noundef 2, ptr noundef null)
  %101 = load ptr, ptr @MainLWLockArray, align 8
  %102 = getelementptr inbounds %union.LWLockPadded, ptr %101, i64 1
  call void @LWLockRelease(ptr noundef %102)
  br label %103

103:                                              ; preds = %97
  br i1 true, label %104, label %106

104:                                              ; preds = %103
  %105 = call zeroext i1 @errstart_cold(i32 noundef 21, ptr noundef null) #7
  br i1 %105, label %108, label %113

106:                                              ; preds = %103
  %107 = call zeroext i1 @errstart(i32 noundef 21, ptr noundef null)
  br i1 %107, label %108, label %113

108:                                              ; preds = %106, %104
  %109 = call i32 @errcode(i32 noundef 8389)
  %110 = load ptr, ptr %5, align 8
  %111 = load i64, ptr %6, align 8
  %112 = call i32 (ptr, ...) @errmsg(ptr noundef @.str.5, ptr noundef %110, i64 noundef %111)
  call void @errfinish(ptr noundef @.str.1, i32 noundef 467, ptr noundef @__func__.ShmemInitStruct)
  br label %113

113:                                              ; preds = %108, %106, %104
  unreachable

114:                                              ; No predecessors!
  br label %115

115:                                              ; preds = %114
  br label %116

116:                                              ; preds = %115, %92
  %117 = load i64, ptr %6, align 8
  %118 = load ptr, ptr %8, align 8
  %119 = getelementptr inbounds nuw %struct.ShmemIndexEnt, ptr %118, i32 0, i32 2
  store i64 %117, ptr %119, align 8
  %120 = load i64, ptr %12, align 8
  %121 = load ptr, ptr %8, align 8
  %122 = getelementptr inbounds nuw %struct.ShmemIndexEnt, ptr %121, i32 0, i32 3
  store i64 %120, ptr %122, align 8
  %123 = load ptr, ptr %9, align 8
  %124 = load ptr, ptr %8, align 8
  %125 = getelementptr inbounds nuw %struct.ShmemIndexEnt, ptr %124, i32 0, i32 1
  store ptr %123, ptr %125, align 8
  call void @llvm.lifetime.end.p0(i64 8, ptr %12) #6
  br label %126

126:                                              ; preds = %116, %88
  %127 = load ptr, ptr @MainLWLockArray, align 8
  %128 = getelementptr inbounds %union.LWLockPadded, ptr %127, i64 1
  call void @LWLockRelease(ptr noundef %128)
  %129 = load ptr, ptr %9, align 8
  store ptr %129, ptr %4, align 8
  store i32 1, ptr %11, align 4
  br label %130

130:                                              ; preds = %126, %34
  call void @llvm.lifetime.end.p0(i64 8, ptr %9) #6
  call void @llvm.lifetime.end.p0(i64 8, ptr %8) #6
  %131 = load ptr, ptr %4, align 8
  ret ptr %131
}