; Function Attrs: nounwind uwtable
define dso_local ptr @ShmemInitStruct(ptr noundef %0, i64 noundef %1, ptr noundef %2) local_unnamed_addr #1 {
  %4 = load ptr, ptr @MainLWLockArray, align 8
  %5 = getelementptr inbounds nuw i8, ptr %4, i64 128
  %6 = tail call zeroext i1 @LWLockAcquire(ptr noundef nonnull %5, i32 noundef 0) #9
  %7 = load ptr, ptr @ShmemIndex, align 8
  %.not = icmp eq ptr %7, null
  br i1 %.not, label %8, label %19

8:                                                ; preds = %3
  %9 = load ptr, ptr @ShmemSegHdr, align 8
  %10 = load i8, ptr @IsUnderPostmaster, align 1, !range !7, !noundef !8
  %11 = trunc nuw i8 %10 to i1
  br i1 %11, label %12, label %15

12:                                               ; preds = %8
  %13 = getelementptr inbounds nuw i8, ptr %9, i64 32
  %14 = load ptr, ptr %13, align 8
  br label %18

15:                                               ; preds = %8
  %16 = tail call ptr @ShmemAlloc(i64 noundef %1)
  %17 = getelementptr inbounds nuw i8, ptr %9, i64 32
  store ptr %16, ptr %17, align 8
  br label %18

18:                                               ; preds = %15, %12
  %storemerge = phi i8 [ 0, %15 ], [ 1, %12 ]
  %.029 = phi ptr [ %16, %15 ], [ %14, %12 ]
  store i8 %storemerge, ptr %2, align 1
  br label %74

19:                                               ; preds = %3
  %20 = tail call ptr @hash_search(ptr noundef nonnull %7, ptr noundef %0, i32 noundef 3, ptr noundef %2) #9
  %.not34 = icmp eq ptr %20, null
  br i1 %.not34, label %21, label %27

21:                                               ; preds = %19
  %22 = load ptr, ptr @MainLWLockArray, align 8
  %23 = getelementptr inbounds nuw i8, ptr %22, i64 128
  tail call void @LWLockRelease(ptr noundef nonnull %23) #9
  %24 = tail call zeroext i1 @errstart_cold(i32 noundef 21, ptr noundef null) #8
  tail call void @llvm.assume(i1 %24)
  %25 = tail call i32 @errcode(i32 noundef 8389) #9
  %26 = tail call i32 (ptr, ...) @errmsg(ptr noundef nonnull @.str.3, ptr noundef %0) #9
  tail call void @errfinish(ptr noundef nonnull @.str.1, i32 noundef 432, ptr noundef nonnull @__func__.ShmemInitStruct) #9
  unreachable

27:                                               ; preds = %19
  %28 = load i8, ptr %2, align 1, !range !7, !noundef !8
  %29 = trunc nuw i8 %28 to i1
  br i1 %29, label %30, label %42

30:                                               ; preds = %27
  %31 = getelementptr inbounds nuw i8, ptr %20, i64 56
  %32 = load i64, ptr %31, align 8
  %.not35 = icmp eq i64 %32, %1
  br i1 %.not35, label %39, label %33

33:                                               ; preds = %30
  %34 = load ptr, ptr @MainLWLockArray, align 8
  %35 = getelementptr inbounds nuw i8, ptr %34, i64 128
  tail call void @LWLockRelease(ptr noundef nonnull %35) #9
  %36 = tail call zeroext i1 @errstart_cold(i32 noundef 21, ptr noundef null) #8
  tail call void @llvm.assume(i1 %36)
  %37 = load i64, ptr %31, align 8
  %38 = tail call i32 (ptr, ...) @errmsg(ptr noundef nonnull @.str.4, ptr noundef %0, i64 noundef %1, i64 noundef %37) #9
  tail call void @errfinish(ptr noundef nonnull @.str.1, i32 noundef 448, ptr noundef nonnull @__func__.ShmemInitStruct) #9
  unreachable

39:                                               ; preds = %30
  %40 = getelementptr inbounds nuw i8, ptr %20, i64 48
  %41 = load ptr, ptr %40, align 8
  br label %74

42:                                               ; preds = %27
  %43 = add i64 %1, 127
  %44 = and i64 %43, -128
  %45 = load ptr, ptr @ShmemLock, align 8
  %46 = tail call i8 asm sideeffect "\09lock\09\09\09\0A\09xchgb\09$0,$1\09\0A", "=q,=*m,0,*m,~{memory},~{cc},~{dirflag},~{fpsr},~{flags}"(ptr elementtype(i8) %45, i8 1, ptr elementtype(i8) %45) #9, !srcloc !5
  %.not.i = icmp eq i8 %46, 0
  br i1 %.not.i, label %50, label %47

47:                                               ; preds = %42
  %48 = load ptr, ptr @ShmemLock, align 8
  %49 = tail call i32 @s_lock(ptr noundef %48, ptr noundef nonnull @.str.1, i32 noundef 203, ptr noundef nonnull @__func__.ShmemAllocRaw) #9
  br label %50

50:                                               ; preds = %47, %42
  %51 = load ptr, ptr @ShmemSegHdr, align 8
  %52 = getelementptr inbounds nuw i8, ptr %51, i64 16
  %53 = load i64, ptr %52, align 8
  %54 = add i64 %53, %44
  %55 = getelementptr inbounds nuw i8, ptr %51, i64 8
  %56 = load i64, ptr %55, align 8
  %.not9.i = icmp ugt i64 %54, %56
  br i1 %.not9.i, label %ShmemAllocRaw.exit, label %57

57:                                               ; preds = %50
  %58 = load ptr, ptr @ShmemBase, align 8
  %59 = getelementptr inbounds nuw i8, ptr %58, i64 %53
  store i64 %54, ptr %52, align 8
  br label %ShmemAllocRaw.exit

ShmemAllocRaw.exit:                               ; preds = %50, %57
  %.0.i = phi ptr [ %59, %57 ], [ null, %50 ]
  tail call void asm sideeffect "", "~{memory},~{dirflag},~{fpsr},~{flags}"() #9, !srcloc !6
  %60 = load ptr, ptr @ShmemLock, align 8
  store i8 0, ptr %60, align 1
  %61 = icmp eq ptr %.0.i, null
  br i1 %61, label %62, label %70

62:                                               ; preds = %ShmemAllocRaw.exit
  %63 = load ptr, ptr @ShmemIndex, align 8
  %64 = tail call ptr @hash_search(ptr noundef %63, ptr noundef %0, i32 noundef 2, ptr noundef null) #9
  %65 = load ptr, ptr @MainLWLockArray, align 8
  %66 = getelementptr inbounds nuw i8, ptr %65, i64 128
  tail call void @LWLockRelease(ptr noundef nonnull %66) #9
  %67 = tail call zeroext i1 @errstart_cold(i32 noundef 21, ptr noundef null) #8
  tail call void @llvm.assume(i1 %67)
  %68 = tail call i32 @errcode(i32 noundef 8389) #9
  %69 = tail call i32 (ptr, ...) @errmsg(ptr noundef nonnull @.str.5, ptr noundef %0, i64 noundef %1) #9
  tail call void @errfinish(ptr noundef nonnull @.str.1, i32 noundef 467, ptr noundef nonnull @__func__.ShmemInitStruct) #9
  unreachable

70:                                               ; preds = %ShmemAllocRaw.exit
  %71 = getelementptr inbounds nuw i8, ptr %20, i64 56
  store i64 %1, ptr %71, align 8
  %72 = getelementptr inbounds nuw i8, ptr %20, i64 64
  store i64 %44, ptr %72, align 8
  %73 = getelementptr inbounds nuw i8, ptr %20, i64 48
  store ptr %.0.i, ptr %73, align 8
  br label %74

74:                                               ; preds = %39, %70, %18
  %.0 = phi ptr [ %.029, %18 ], [ %41, %39 ], [ %.0.i, %70 ]
  %75 = load ptr, ptr @MainLWLockArray, align 8
  %76 = getelementptr inbounds nuw i8, ptr %75, i64 128
  tail call void @LWLockRelease(ptr noundef nonnull %76) #9
  ret ptr %.0
}